; Function Attrs: mustprogress uwtable
define void @_ZN3net10SpdyFramer5ResetEv(ptr noundef nonnull align 8 captures(none) dereferenceable(259) initializes((8, 20), (24, 48), (80, 100), (120, 132), (252, 253)) %0) local_unnamed_addr #0 align 2 {
  %2 = getelementptr inbounds nuw i8, ptr %0, i64 240
  %3 = load ptr, ptr %2, align 8, !tbaa !99
  %.not = icmp eq ptr %3, null
  br i1 %.not, label %8, label %4

4:                                                ; preds = %1
  %5 = load ptr, ptr %3, align 8, !tbaa !9
  %6 = getelementptr inbounds nuw i8, ptr %5, i64 56
  %7 = load ptr, ptr %6, align 8
  tail call void %7(ptr noundef nonnull align 8 dereferenceable(25) %3)
  br label %8

8:                                                ; preds = %4, %1
  %9 = getelementptr inbounds nuw i8, ptr %0, i64 8
  store i32 1, ptr %9, align 8, !tbaa !88
  %10 = getelementptr inbounds nuw i8, ptr %0, i64 12
  store i32 1, ptr %10, align 4, !tbaa !89
  %11 = getelementptr inbounds nuw i8, ptr %0, i64 16
  store i32 0, ptr %11, align 8, !tbaa !90
  %12 = getelementptr inbounds nuw i8, ptr %0, i64 24
  store i64 0, ptr %12, align 8, !tbaa !91
  %13 = getelementptr inbounds nuw i8, ptr %0, i64 40
  store i64 0, ptr %13, align 8, !tbaa !92
  %14 = getelementptr inbounds nuw i8, ptr %0, i64 80
  %15 = getelementptr inbounds nuw i8, ptr %0, i64 252
  store i8 0, ptr %15, align 4, !tbaa !93
  %16 = getelementptr inbounds nuw i8, ptr %0, i64 96
  tail call void @llvm.memset.p0.i64(ptr noundef nonnull align 8 dereferenceable(16) %14, i8 0, i64 16, i1 false)
  store i32 -1, ptr %16, align 8, !tbaa !94
  %17 = getelementptr inbounds nuw i8, ptr %0, i64 120
  store i64 0, ptr %17, align 8, !tbaa !95
  %18 = getelementptr inbounds nuw i8, ptr %0, i64 128
  store i32 -1, ptr %18, align 8, !tbaa !96
  %19 = getelementptr inbounds nuw i8, ptr %0, i64 136
  %20 = load ptr, ptr %19, align 8, !tbaa !97
  store ptr null, ptr %19, align 8, !tbaa !97
  %.not.i.i = icmp eq ptr %20, null
  br i1 %.not.i.i, label %_ZNSt10unique_ptrIN3net10SpdyFramer10CharBufferESt14default_deleteIS2_EE5resetEPS2_.exit, label %_ZNKSt14default_deleteIN3net10SpdyFramer10CharBufferEEclEPS2_.exit.i.i

_ZNKSt14default_deleteIN3net10SpdyFramer10CharBufferEEclEPS2_.exit.i.i: ; preds = %8
  tail call void @_ZN3net10SpdyFramer10CharBufferD1Ev(ptr noundef nonnull align 8 dereferenceable(24) %20) #25
  tail call void @_ZdlPv(ptr noundef nonnull %20) #26
  br label %_ZNSt10unique_ptrIN3net10SpdyFramer10CharBufferESt14default_deleteIS2_EE5resetEPS2_.exit

_ZNSt10unique_ptrIN3net10SpdyFramer10CharBufferESt14default_deleteIS2_EE5resetEPS2_.exit: ; preds = %8, %_ZNKSt14default_deleteIN3net10SpdyFramer10CharBufferEEclEPS2_.exit.i.i
  %21 = getelementptr inbounds nuw i8, ptr %0, i64 32
  store i64 0, ptr %21, align 8, !tbaa !98
  ret void
}